; Function Attrs: nounwind uwtable
define range(i32 0, 2) i32 @test_false(ptr noundef %0, i32 noundef %1, ptr noundef %2, i32 noundef %3) local_unnamed_addr #0 {
  %.not = icmp eq i32 %3, 0
  br i1 %.not, label %6, label %5

5:                                                ; preds = %4
  tail call void (ptr, ptr, i32, ptr, ptr, ptr, ptr, ptr, ...) @test_fail_message(ptr poison, ptr noundef %0, i32 noundef %1, ptr noundef nonnull @.str.41, ptr noundef %2, ptr noundef nonnull @.str.43, ptr noundef nonnull @.str.12, ptr noundef nonnull @.str.42)
  br label %6

6:                                                ; preds = %4, %5
  %.0 = phi i32 [ 0, %5 ], [ 1, %4 ]
  ret i32 %.0
}